target datalayout = "e-m:e-p270:32:32-p271:32:32-p272:64:64-i64:64-i128:128-f80:128-n8:16:32:64-S128"
target triple = "x86_64-pc-linux-gnu"

%struct._zend_executor_globals = type { %struct._zval_struct, %struct._zval_struct, [32 x ptr], ptr, ptr, %struct._zend_array, %struct._zend_array, ptr, i32, i8, %struct._zval_struct, i32, ptr, ptr, ptr, ptr, ptr, ptr, i64, ptr, ptr, i32, ptr, i32, i64, i32, i32, i32, i8, i8, %struct.zend_atomic_bool_s, %struct.zend_atomic_bool_s, ptr, i64, ptr, ptr, %struct._zend_array, %struct._zend_array, i32, i8, %struct._zval_struct, %struct._zval_struct, %struct._zend_stack, %struct._zend_stack, %struct._zend_stack, ptr, i32, i32, i64, ptr, ptr, ptr, %struct._zend_objects_store, %struct._zend_lazy_objects_store, ptr, ptr, ptr, [3 x %struct._zend_op], ptr, i8, i8, i64, i32, i32, ptr, [16 x %struct._HashTableIterator], ptr, %union._zend_function, %struct._zend_op, %struct._zend_array, i64, %struct.zend_get_gc_buffer, ptr, ptr, ptr, i64, i8, i32, ptr, ptr, i64, %struct._zend_call_stack, i64, i64, %struct._zend_strtod_state, [6 x ptr] }
%struct.zend_atomic_bool_s = type { i8 }
%struct._zval_struct = type { %union._zend_value, %union.anon, %union.anon.2 }
%union._zend_value = type { i64 }
%union.anon = type { i32 }
%union.anon.2 = type { i32 }
%struct._zend_stack = type { i32, i32, i32, ptr }
%struct._zend_objects_store = type { ptr, i32, i32, i32 }
%struct._zend_lazy_objects_store = type { %struct._zend_array }
%struct._HashTableIterator = type { ptr, i32, i32 }
%union._zend_function = type { %struct._zend_op_array }
%struct._zend_op_array = type { i8, [3 x i8], i32, ptr, ptr, ptr, i32, i32, ptr, ptr, ptr, ptr, i32, ptr, i32, i32, i32, ptr, ptr, ptr, ptr, ptr, i32, i32, ptr, ptr, ptr, i32, i32, i32, i32, ptr, ptr, [6 x ptr] }
%struct._zend_op = type { ptr, %union._znode_op, %union._znode_op, %union._znode_op, i32, i32, i8, i8, i8, i8 }
%union._znode_op = type { i32 }
%struct._zend_array = type { %struct._zend_refcounted_h, %union.anon.4, i32, %union.anon.6, i32, i32, i32, i32, i64, ptr }
%struct._zend_refcounted_h = type { i32, %union.anon.3 }
%union.anon.3 = type { i32 }
%union.anon.4 = type { i32 }
%union.anon.6 = type { ptr }
%struct.zend_get_gc_buffer = type { ptr, ptr, ptr }
%struct._zend_call_stack = type { ptr, i64 }
%struct._zend_strtod_state = type { [8 x ptr], ptr, ptr }
%struct._zend_fcall_info_cache = type { ptr, ptr, ptr, ptr, ptr }
%struct._zend_sqlite3_globals = type { ptr, i32 }
%struct._zend_llist = type { ptr, ptr, i64, i64, ptr, i8, ptr }
%struct._zend_execute_data = type { ptr, ptr, ptr, ptr, %struct._zval_struct, ptr, ptr, ptr, ptr }
%struct._php_sqlite3_db_object = type { i8, i8, ptr, ptr, ptr, %struct._zend_fcall_info_cache, %struct._zend_llist, %struct._zend_object }
%struct._zend_object = type { %struct._zend_refcounted_h, i32, i32, ptr, ptr, ptr, [1 x %struct._zval_struct] }

@executor_globals = external global %struct._zend_executor_globals, align 8
@sqlite3_globals = hidden global %struct._zend_sqlite3_globals zeroinitializer, align 8
@.str.8 = private unnamed_addr constant [75 x i8] c"The SQLite3 object has not been correctly initialised or is already closed\00", align 1
@.str.9 = private unnamed_addr constant [3 x i8] c"%s\00", align 1
@.str.14 = private unnamed_addr constant [2 x i8] c"s\00", align 1
@.str.15 = private unnamed_addr constant [31 x i8] c"SQLite Extensions are disabled\00", align 1
@.str.16 = private unnamed_addr constant [5 x i8] c"%s%s\00", align 1
@.str.17 = private unnamed_addr constant [7 x i8] c"%s%c%s\00", align 1
@.str.18 = private unnamed_addr constant [33 x i8] c"Unable to load extension at '%s'\00", align 1
@.str.19 = private unnamed_addr constant [56 x i8] c"Unable to open extensions outside the defined directory\00", align 1

; Function Attrs: inlinehint nounwind uwtable
define internal ptr @php_sqlite3_db_from_obj(ptr noundef %0) #2 {
  %2 = alloca ptr, align 8
  store ptr %0, ptr %2, align 8, !tbaa !67
  %3 = load ptr, ptr %2, align 8, !tbaa !67
  %4 = getelementptr inbounds i8, ptr %3, i64 -128
  ret ptr %4
}

; Function Attrs: nounwind uwtable
define hidden void @zim_SQLite3_loadExtension(ptr noundef %0, ptr noundef %1) #0 {
  %3 = alloca ptr, align 8
  %4 = alloca ptr, align 8
  %5 = alloca ptr, align 8
  %6 = alloca ptr, align 8
  %7 = alloca ptr, align 8
  %8 = alloca ptr, align 8
  %9 = alloca ptr, align 8
  %10 = alloca ptr, align 8
  %11 = alloca [4096 x i8], align 16
  %12 = alloca i64, align 8
  %13 = alloca i64, align 8
  %14 = alloca i32, align 4
  store ptr %0, ptr %3, align 8, !tbaa !4
  store ptr %1, ptr %4, align 8, !tbaa !9
  call void @llvm.lifetime.start.p0(i64 8, ptr %5) #15
  call void @llvm.lifetime.start.p0(i64 8, ptr %6) #15
  %15 = load ptr, ptr %3, align 8, !tbaa !4
  %16 = getelementptr inbounds nuw %struct._zend_execute_data, ptr %15, i32 0, i32 4
  store ptr %16, ptr %6, align 8, !tbaa !9
  call void @llvm.lifetime.start.p0(i64 8, ptr %7) #15
  call void @llvm.lifetime.start.p0(i64 8, ptr %8) #15
  call void @llvm.lifetime.start.p0(i64 8, ptr %9) #15
  call void @llvm.lifetime.start.p0(i64 8, ptr %10) #15
  store ptr null, ptr %10, align 8, !tbaa !62
  call void @llvm.lifetime.start.p0(i64 4096, ptr %11) #15
  call void @llvm.lifetime.start.p0(i64 8, ptr %12) #15
  call void @llvm.lifetime.start.p0(i64 8, ptr %13) #15
  %17 = load ptr, ptr %6, align 8, !tbaa !9
  %18 = getelementptr inbounds nuw %struct._zval_struct, ptr %17, i32 0, i32 0
  %19 = load ptr, ptr %18, align 8, !tbaa !13
  %20 = call ptr @php_sqlite3_db_from_obj(ptr noundef %19)
  store ptr %20, ptr %5, align 8, !tbaa !14
  %21 = load ptr, ptr %3, align 8, !tbaa !4
  %22 = getelementptr inbounds nuw %struct._zend_execute_data, ptr %21, i32 0, i32 4
  %23 = getelementptr inbounds nuw %struct._zval_struct, ptr %22, i32 0, i32 2
  %24 = load i32, ptr %23, align 4, !tbaa !13
  %25 = call i32 (i32, ptr, ...) @zend_parse_parameters(i32 noundef %24, ptr noundef @.str.14, ptr noundef %7, ptr noundef %12)
  %26 = icmp eq i32 -1, %25
  br i1 %26, label %27, label %33

27:                                               ; preds = %2
  br label %28

28:                                               ; preds = %27
  %29 = load ptr, ptr getelementptr inbounds nuw (%struct._zend_executor_globals, ptr @executor_globals, i32 0, i32 54), align 8, !tbaa !16
  %30 = icmp ne ptr %29, null
  call void @llvm.assume(i1 %30)
  store i32 1, ptr %14, align 4
  br label %162

31:                                               ; No predecessors!
  br label %32

32:                                               ; preds = %31
  br label %33

33:                                               ; preds = %32, %2
  %34 = load ptr, ptr %5, align 8, !tbaa !14
  %35 = icmp ne ptr %34, null
  br i1 %35, label %36, label %41

36:                                               ; preds = %33
  %37 = load ptr, ptr %5, align 8, !tbaa !14
  %38 = getelementptr inbounds nuw %struct._php_sqlite3_db_object, ptr %37, i32 0, i32 0
  %39 = load i8, ptr %38, align 8, !tbaa !48, !range !59, !noundef !60
  %40 = trunc i8 %39 to i1
  br i1 %40, label %47, label %41

41:                                               ; preds = %36, %33
  call void (ptr, ptr, ...) @zend_throw_error(ptr noundef null, ptr noundef @.str.8)
  br label %42

42:                                               ; preds = %41
  %43 = load ptr, ptr getelementptr inbounds nuw (%struct._zend_executor_globals, ptr @executor_globals, i32 0, i32 54), align 8, !tbaa !16
  %44 = icmp ne ptr %43, null
  call void @llvm.assume(i1 %44)
  store i32 1, ptr %14, align 4
  br label %162

45:                                               ; No predecessors!
  br label %46

46:                                               ; preds = %45
  br label %47

47:                                               ; preds = %46, %36
  %48 = load ptr, ptr @sqlite3_globals, align 8, !tbaa !80
  %49 = icmp ne ptr %48, null
  br i1 %49, label %60, label %50

50:                                               ; preds = %47
  %51 = load ptr, ptr %5, align 8, !tbaa !14
  call void (ptr, i32, ptr, ...) @php_sqlite3_error(ptr noundef %51, i32 noundef 0, ptr noundef @.str.15)
  br label %52

52:                                               ; preds = %50
  br label %53

53:                                               ; preds = %52
  %54 = load ptr, ptr %4, align 8, !tbaa !9
  %55 = getelementptr inbounds nuw %struct._zval_struct, ptr %54, i32 0, i32 1
  store i32 2, ptr %55, align 8, !tbaa !13
  br label %56

56:                                               ; preds = %53
  br label %57

57:                                               ; preds = %56
  store i32 1, ptr %14, align 4
  br label %162

58:                                               ; No predecessors!
  br label %59

59:                                               ; preds = %58
  br label %60

60:                                               ; preds = %59, %47
  %61 = load i64, ptr %12, align 8, !tbaa !11
  %62 = icmp eq i64 %61, 0
  br i1 %62, label %63, label %69

63:                                               ; preds = %60
  call void @zend_argument_must_not_be_empty_error(i32 noundef 1)
  br label %64

64:                                               ; preds = %63
  %65 = load ptr, ptr getelementptr inbounds nuw (%struct._zend_executor_globals, ptr @executor_globals, i32 0, i32 54), align 8, !tbaa !16
  %66 = icmp ne ptr %65, null
  call void @llvm.assume(i1 %66)
  store i32 1, ptr %14, align 4
  br label %162

67:                                               ; No predecessors!
  br label %68

68:                                               ; preds = %67
  br label %69

69:                                               ; preds = %68, %60
  %70 = load ptr, ptr @sqlite3_globals, align 8, !tbaa !80
  store ptr %70, ptr %9, align 8, !tbaa !62
  %71 = load ptr, ptr @sqlite3_globals, align 8, !tbaa !80
  %72 = call i64 @strlen(ptr noundef %71) #16
  store i64 %72, ptr %13, align 8, !tbaa !11
  %73 = load ptr, ptr %9, align 8, !tbaa !62
  %74 = load i64, ptr %13, align 8, !tbaa !11
  %75 = sub i64 %74, 1
  %76 = getelementptr inbounds nuw i8, ptr %73, i64 %75
  %77 = load i8, ptr %76, align 1, !tbaa !13
  %78 = sext i8 %77 to i32
  %79 = icmp eq i32 %78, 47
  br i1 %79, label %80, label %84

80:                                               ; preds = %69
  %81 = load ptr, ptr %9, align 8, !tbaa !62
  %82 = load ptr, ptr %7, align 8, !tbaa !62
  %83 = call i64 (ptr, i64, ptr, ...) @zend_spprintf(ptr noundef %8, i64 noundef 0, ptr noundef @.str.16, ptr noundef %81, ptr noundef %82)
  br label %88

84:                                               ; preds = %69
  %85 = load ptr, ptr %9, align 8, !tbaa !62
  %86 = load ptr, ptr %7, align 8, !tbaa !62
  %87 = call i64 (ptr, i64, ptr, ...) @zend_spprintf(ptr noundef %8, i64 noundef 0, ptr noundef @.str.17, ptr noundef %85, i32 noundef 47, ptr noundef %86)
  br label %88

88:                                               ; preds = %84, %80
  %89 = load ptr, ptr %8, align 8, !tbaa !62
  %90 = getelementptr inbounds [4096 x i8], ptr %11, i64 0, i64 0
  %91 = call ptr @tsrm_realpath(ptr noundef %89, ptr noundef %90)
  %92 = icmp ne ptr %91, null
  br i1 %92, label %105, label %93

93:                                               ; preds = %88
  %94 = load ptr, ptr %5, align 8, !tbaa !14
  %95 = load ptr, ptr %8, align 8, !tbaa !62
  call void (ptr, i32, ptr, ...) @php_sqlite3_error(ptr noundef %94, i32 noundef 0, ptr noundef @.str.18, ptr noundef %95)
  %96 = load ptr, ptr %8, align 8, !tbaa !62
  call void @_efree(ptr noundef %96)
  br label %97

97:                                               ; preds = %93
  br label %98

98:                                               ; preds = %97
  %99 = load ptr, ptr %4, align 8, !tbaa !9
  %100 = getelementptr inbounds nuw %struct._zval_struct, ptr %99, i32 0, i32 1
  store i32 2, ptr %100, align 8, !tbaa !13
  br label %101

101:                                              ; preds = %98
  br label %102

102:                                              ; preds = %101
  store i32 1, ptr %14, align 4
  br label %162

103:                                              ; No predecessors!
  br label %104

104:                                              ; preds = %103
  br label %105

105:                                              ; preds = %104, %88
  %106 = load ptr, ptr %8, align 8, !tbaa !62
  call void @_efree(ptr noundef %106)
  %107 = getelementptr inbounds [4096 x i8], ptr %11, i64 0, i64 0
  %108 = load ptr, ptr %9, align 8, !tbaa !62
  %109 = load i64, ptr %13, align 8, !tbaa !11
  %110 = call i32 @strncmp(ptr noundef %107, ptr noundef %108, i64 noundef %109) #16
  %111 = icmp ne i32 %110, 0
  br i1 %111, label %112, label %122

112:                                              ; preds = %105
  %113 = load ptr, ptr %5, align 8, !tbaa !14
  call void (ptr, i32, ptr, ...) @php_sqlite3_error(ptr noundef %113, i32 noundef 0, ptr noundef @.str.19)
  br label %114

114:                                              ; preds = %112
  br label %115

115:                                              ; preds = %114
  %116 = load ptr, ptr %4, align 8, !tbaa !9
  %117 = getelementptr inbounds nuw %struct._zval_struct, ptr %116, i32 0, i32 1
  store i32 2, ptr %117, align 8, !tbaa !13
  br label %118

118:                                              ; preds = %115
  br label %119

119:                                              ; preds = %118
  store i32 1, ptr %14, align 4
  br label %162

120:                                              ; No predecessors!
  br label %121

121:                                              ; preds = %120
  br label %122

122:                                              ; preds = %121, %105
  %123 = load ptr, ptr %5, align 8, !tbaa !14
  %124 = getelementptr inbounds nuw %struct._php_sqlite3_db_object, ptr %123, i32 0, i32 2
  %125 = load ptr, ptr %124, align 8, !tbaa !64
  %126 = call i32 @sqlite3_enable_load_extension(ptr noundef %125, i32 noundef 1)
  %127 = load ptr, ptr %5, align 8, !tbaa !14
  %128 = getelementptr inbounds nuw %struct._php_sqlite3_db_object, ptr %127, i32 0, i32 2
  %129 = load ptr, ptr %128, align 8, !tbaa !64
  %130 = getelementptr inbounds [4096 x i8], ptr %11, i64 0, i64 0
  %131 = call i32 @sqlite3_load_extension(ptr noundef %129, ptr noundef %130, ptr noundef null, ptr noundef %10)
  %132 = icmp ne i32 %131, 0
  br i1 %132, label %133, label %149

133:                                              ; preds = %122
  %134 = load ptr, ptr %5, align 8, !tbaa !14
  %135 = load ptr, ptr %10, align 8, !tbaa !62
  call void (ptr, i32, ptr, ...) @php_sqlite3_error(ptr noundef %134, i32 noundef 0, ptr noundef @.str.9, ptr noundef %135)
  %136 = load ptr, ptr %10, align 8, !tbaa !62
  call void @sqlite3_free(ptr noundef %136)
  %137 = load ptr, ptr %5, align 8, !tbaa !14
  %138 = getelementptr inbounds nuw %struct._php_sqlite3_db_object, ptr %137, i32 0, i32 2
  %139 = load ptr, ptr %138, align 8, !tbaa !64
  %140 = call i32 @sqlite3_enable_load_extension(ptr noundef %139, i32 noundef 0)
  br label %141

141:                                              ; preds = %133
  br label %142

142:                                              ; preds = %141
  %143 = load ptr, ptr %4, align 8, !tbaa !9
  %144 = getelementptr inbounds nuw %struct._zval_struct, ptr %143, i32 0, i32 1
  store i32 2, ptr %144, align 8, !tbaa !13
  br label %145

145:                                              ; preds = %142
  br label %146

146:                                              ; preds = %145
  store i32 1, ptr %14, align 4
  br label %162

147:                                              ; No predecessors!
  br label %148

148:                                              ; preds = %147
  br label %149

149:                                              ; preds = %148, %122
  %150 = load ptr, ptr %5, align 8, !tbaa !14
  %151 = getelementptr inbounds nuw %struct._php_sqlite3_db_object, ptr %150, i32 0, i32 2
  %152 = load ptr, ptr %151, align 8, !tbaa !64
  %153 = call i32 @sqlite3_enable_load_extension(ptr noundef %152, i32 noundef 0)
  br label %154

154:                                              ; preds = %149
  br label %155

155:                                              ; preds = %154
  %156 = load ptr, ptr %4, align 8, !tbaa !9
  %157 = getelementptr inbounds nuw %struct._zval_struct, ptr %156, i32 0, i32 1
  store i32 3, ptr %157, align 8, !tbaa !13
  br label %158

158:                                              ; preds = %155
  br label %159

159:                                              ; preds = %158
  store i32 1, ptr %14, align 4
  br label %162

160:                                              ; No predecessors!
  br label %161

161:                                              ; preds = %160
  store i32 0, ptr %14, align 4
  br label %162

162:                                              ; preds = %161, %159, %146, %119, %102, %64, %57, %42, %28
  call void @llvm.lifetime.end.p0(i64 8, ptr %13) #15
  call void @llvm.lifetime.end.p0(i64 8, ptr %12) #15
  call void @llvm.lifetime.end.p0(i64 4096, ptr %11) #15
  call void @llvm.lifetime.end.p0(i64 8, ptr %10) #15
  call void @llvm.lifetime.end.p0(i64 8, ptr %9) #15
  call void @llvm.lifetime.end.p0(i64 8, ptr %8) #15
  call void @llvm.lifetime.end.p0(i64 8, ptr %7) #15
  call void @llvm.lifetime.end.p0(i64 8, ptr %6) #15
  call void @llvm.lifetime.end.p0(i64 8, ptr %5) #15
  %163 = load i32, ptr %14, align 4
  switch i32 %163, label %165 [
    i32 0, label %164
    i32 1, label %164
  ]

164:                                              ; preds = %162, %162
  ret void

165:                                              ; preds = %162
  unreachable
}