; Function Attrs: nounwind uwtable
define hidden void @zim_SQLite3_loadExtension(ptr noundef readonly captures(none) %0, ptr noundef writeonly captures(none) %1) #0 {
  %3 = alloca ptr, align 8
  %4 = alloca ptr, align 8
  %5 = alloca ptr, align 8
  %6 = alloca [4096 x i8], align 16
  %7 = alloca i64, align 8
  %8 = getelementptr inbounds nuw i8, ptr %0, i64 32
  call void @llvm.lifetime.start.p0(i64 8, ptr nonnull %3) #17
  call void @llvm.lifetime.start.p0(i64 8, ptr nonnull %4) #17
  call void @llvm.lifetime.start.p0(i64 8, ptr nonnull %5) #17
  store ptr null, ptr %5, align 8, !tbaa !58
  call void @llvm.lifetime.start.p0(i64 4096, ptr nonnull %6) #17
  call void @llvm.lifetime.start.p0(i64 8, ptr nonnull %7) #17
  %9 = load ptr, ptr %8, align 8, !tbaa !8
  %10 = getelementptr inbounds i8, ptr %9, i64 -128
  %11 = getelementptr inbounds nuw i8, ptr %0, i64 44
  %12 = load i32, ptr %11, align 4, !tbaa !8
  %13 = call i32 (i32, ptr, ...) @zend_parse_parameters(i32 noundef %12, ptr noundef nonnull @.str.14, ptr noundef nonnull %3, ptr noundef nonnull %7) #17
  %14 = icmp eq i32 %13, -1
  br i1 %14, label %15, label %18

15:                                               ; preds = %2
  %16 = load ptr, ptr getelementptr inbounds nuw (i8, ptr @executor_globals, i64 960), align 8, !tbaa !9
  %17 = icmp ne ptr %16, null
  call void @llvm.assume(i1 %17)
  br label %72

18:                                               ; preds = %2
  %19 = load i8, ptr %10, align 8, !tbaa !44, !range !55, !noundef !56
  %20 = trunc nuw i8 %19 to i1
  br i1 %20, label %24, label %21

21:                                               ; preds = %18
  call void (ptr, ptr, ...) @zend_throw_error(ptr noundef null, ptr noundef nonnull @.str.8) #17
  %22 = load ptr, ptr getelementptr inbounds nuw (i8, ptr @executor_globals, i64 960), align 8, !tbaa !9
  %23 = icmp ne ptr %22, null
  call void @llvm.assume(i1 %23)
  br label %72

24:                                               ; preds = %18
  %25 = load ptr, ptr @sqlite3_globals, align 8, !tbaa !81
  %.not24 = icmp eq ptr %25, null
  br i1 %.not24, label %26, label %28

26:                                               ; preds = %24
  call void (ptr, i32, ptr, ...) @php_sqlite3_error(ptr noundef nonnull %10, i32 noundef 0, ptr noundef nonnull @.str.15)
  %27 = getelementptr inbounds nuw i8, ptr %1, i64 8
  store i32 2, ptr %27, align 8, !tbaa !8
  br label %72

28:                                               ; preds = %24
  %29 = load i64, ptr %7, align 8, !tbaa !4
  %30 = icmp eq i64 %29, 0
  br i1 %30, label %31, label %34

31:                                               ; preds = %28
  call void @zend_argument_must_not_be_empty_error(i32 noundef 1) #17
  %32 = load ptr, ptr getelementptr inbounds nuw (i8, ptr @executor_globals, i64 960), align 8, !tbaa !9
  %33 = icmp ne ptr %32, null
  call void @llvm.assume(i1 %33)
  br label %72

34:                                               ; preds = %28
  %35 = call i64 @strlen(ptr noundef nonnull dereferenceable(1) %25) #18
  %36 = getelementptr i8, ptr %25, i64 %35
  %37 = getelementptr i8, ptr %36, i64 -1
  %38 = load i8, ptr %37, align 1, !tbaa !8
  %39 = icmp eq i8 %38, 47
  %40 = load ptr, ptr %3, align 8, !tbaa !58
  br i1 %39, label %41, label %43

41:                                               ; preds = %34
  %42 = call i64 (ptr, i64, ptr, ...) @zend_spprintf(ptr noundef nonnull %4, i64 noundef 0, ptr noundef nonnull @.str.16, ptr noundef nonnull %25, ptr noundef %40) #17
  br label %45

43:                                               ; preds = %34
  %44 = call i64 (ptr, i64, ptr, ...) @zend_spprintf(ptr noundef nonnull %4, i64 noundef 0, ptr noundef nonnull @.str.17, ptr noundef nonnull %25, i32 noundef 47, ptr noundef %40) #17
  br label %45

45:                                               ; preds = %43, %41
  %46 = load ptr, ptr %4, align 8, !tbaa !58
  %47 = call ptr @tsrm_realpath(ptr noundef %46, ptr noundef nonnull %6) #17
  %.not25 = icmp eq ptr %47, null
  %48 = load ptr, ptr %4, align 8, !tbaa !58
  br i1 %.not25, label %49, label %52

49:                                               ; preds = %45
  call void (ptr, i32, ptr, ...) @php_sqlite3_error(ptr noundef nonnull %10, i32 noundef 0, ptr noundef nonnull @.str.18, ptr noundef %48)
  %50 = load ptr, ptr %4, align 8, !tbaa !58
  call void @_efree(ptr noundef %50) #17
  %51 = getelementptr inbounds nuw i8, ptr %1, i64 8
  store i32 2, ptr %51, align 8, !tbaa !8
  br label %72

52:                                               ; preds = %45
  call void @_efree(ptr noundef %48) #17
  %53 = call i32 @strncmp(ptr noundef nonnull %6, ptr noundef nonnull %25, i64 noundef %35) #18
  %.not26 = icmp eq i32 %53, 0
  br i1 %.not26, label %56, label %54

54:                                               ; preds = %52
  call void (ptr, i32, ptr, ...) @php_sqlite3_error(ptr noundef nonnull %10, i32 noundef 0, ptr noundef nonnull @.str.19)
  %55 = getelementptr inbounds nuw i8, ptr %1, i64 8
  store i32 2, ptr %55, align 8, !tbaa !8
  br label %72

56:                                               ; preds = %52
  %57 = getelementptr inbounds i8, ptr %9, i64 -120
  %58 = load ptr, ptr %57, align 8, !tbaa !59
  %59 = call i32 @sqlite3_enable_load_extension(ptr noundef %58, i32 noundef 1) #17
  %60 = load ptr, ptr %57, align 8, !tbaa !59
  %61 = call i32 @sqlite3_load_extension(ptr noundef %60, ptr noundef nonnull %6, ptr noundef null, ptr noundef nonnull %5) #17
  %.not27 = icmp eq i32 %61, 0
  br i1 %.not27, label %68, label %62

62:                                               ; preds = %56
  %63 = load ptr, ptr %5, align 8, !tbaa !58
  call void (ptr, i32, ptr, ...) @php_sqlite3_error(ptr noundef nonnull %10, i32 noundef 0, ptr noundef nonnull @.str.9, ptr noundef %63)
  %64 = load ptr, ptr %5, align 8, !tbaa !58
  call void @sqlite3_free(ptr noundef %64) #17
  %65 = load ptr, ptr %57, align 8, !tbaa !59
  %66 = call i32 @sqlite3_enable_load_extension(ptr noundef %65, i32 noundef 0) #17
  %67 = getelementptr inbounds nuw i8, ptr %1, i64 8
  store i32 2, ptr %67, align 8, !tbaa !8
  br label %72

68:                                               ; preds = %56
  %69 = load ptr, ptr %57, align 8, !tbaa !59
  %70 = call i32 @sqlite3_enable_load_extension(ptr noundef %69, i32 noundef 0) #17
  %71 = getelementptr inbounds nuw i8, ptr %1, i64 8
  store i32 3, ptr %71, align 8, !tbaa !8
  br label %72

72:                                               ; preds = %68, %62, %54, %49, %31, %26, %21, %15
  call void @llvm.lifetime.end.p0(i64 8, ptr nonnull %7) #17
  call void @llvm.lifetime.end.p0(i64 4096, ptr nonnull %6) #17
  call void @llvm.lifetime.end.p0(i64 8, ptr nonnull %5) #17
  call void @llvm.lifetime.end.p0(i64 8, ptr nonnull %4) #17
  call void @llvm.lifetime.end.p0(i64 8, ptr nonnull %3) #17
  ret void
}